; Function Attrs: mustprogress uwtable
define dso_local void @_ZN35cmMakefileExecutableTargetGenerator14WriteRuleFilesEv(ptr noundef nonnull align 8 dereferenceable(1096) %0) unnamed_addr #3 align 2 personality ptr @__gxx_personality_v0 {
  %2 = alloca %"class.std::__cxx11::basic_string", align 8
  tail call void @_ZN25cmMakefileTargetGenerator14CreateRuleFileEv(ptr noundef nonnull align 8 dereferenceable(1064) %0)
  tail call void @_ZN25cmMakefileTargetGenerator20WriteCommonCodeRulesEv(ptr noundef nonnull align 8 dereferenceable(1064) %0)
  tail call void @_ZN25cmMakefileTargetGenerator24WriteTargetLanguageFlagsEv(ptr noundef nonnull align 8 dereferenceable(1064) %0)
  tail call void @_ZN25cmMakefileTargetGenerator21WriteTargetBuildRulesEv(ptr noundef nonnull align 8 dereferenceable(1064) %0)
  %3 = load ptr, ptr %0, align 8
  %4 = getelementptr inbounds i8, ptr %3, i64 64
  %5 = load ptr, ptr %4, align 8
  tail call void %5(ptr noundef nonnull align 8 dereferenceable(1096) %0, i1 noundef zeroext false)
  %6 = load ptr, ptr %0, align 8
  %7 = getelementptr inbounds i8, ptr %6, i64 56
  %8 = load ptr, ptr %7, align 8
  tail call void %8(ptr noundef nonnull align 8 dereferenceable(1096) %0, i1 noundef zeroext false)
  %9 = getelementptr inbounds i8, ptr %0, i64 8
  %10 = load ptr, ptr %9, align 8
  call void @_ZNK25cmMakefileTargetGenerator13GetConfigNameB5cxx11Ev(ptr dead_on_unwind nonnull writable sret(%"class.std::__cxx11::basic_string") align 8 %2, ptr noundef nonnull align 8 dereferenceable(1064) %0)
  %11 = invoke noundef zeroext i1 @_ZNK17cmGeneratorTarget23NeedRelinkBeforeInstallERKNSt7__cxx1112basic_stringIcSt11char_traitsIcESaIcEEE(ptr noundef nonnull align 8 dereferenceable(2728) %10, ptr noundef nonnull align 8 dereferenceable(32) %2)
          to label %12 unwind label %17

12:                                               ; preds = %1
  call void @_ZNSt7__cxx1112basic_stringIcSt11char_traitsIcESaIcEED1Ev(ptr noundef nonnull align 8 dereferenceable(32) %2) #17
  br i1 %11, label %13, label %19

13:                                               ; preds = %12
  %14 = load ptr, ptr %0, align 8
  %15 = getelementptr inbounds i8, ptr %14, i64 56
  %16 = load ptr, ptr %15, align 8
  call void %16(ptr noundef nonnull align 8 dereferenceable(1096) %0, i1 noundef zeroext true)
  br label %19

17:                                               ; preds = %1
  %18 = landingpad { ptr, i32 }
          cleanup
  call void @_ZNSt7__cxx1112basic_stringIcSt11char_traitsIcESaIcEED1Ev(ptr noundef nonnull align 8 dereferenceable(32) %2) #17
  resume { ptr, i32 } %18

19:                                               ; preds = %13, %12
  call void @_ZN25cmMakefileTargetGenerator26WriteTargetLinkDependRulesEv(ptr noundef nonnull align 8 dereferenceable(1064) %0)
  call void @_ZN25cmMakefileTargetGenerator21WriteTargetCleanRulesEv(ptr noundef nonnull align 8 dereferenceable(1064) %0)
  call void @_ZN25cmMakefileTargetGenerator22WriteTargetDependRulesEv(ptr noundef nonnull align 8 dereferenceable(1064) %0)
  %20 = load ptr, ptr %0, align 8
  %21 = getelementptr inbounds i8, ptr %20, i64 48
  %22 = load ptr, ptr %21, align 8
  call void %22(ptr noundef nonnull align 8 dereferenceable(1064) %0)
  ret void
}